; ModuleID = '62/222.c'
source_filename = "62/222.c"
target datalayout = "e-m:e-p270:32:32-p271:32:32-p272:64:64-i64:64-f80:128-n8:16:32:64-S128"
target triple = "x86_64-pc-linux-gnu"

@.str = private unnamed_addr constant [3 x i8] c"%c\00", align 1

; Function Attrs: noinline nounwind uwtable
define dso_local i32 @main() #0 {
  %1 = alloca i32, align 4
  %2 = alloca i8, align 1
  %3 = alloca i32, align 4
  %4 = alloca i32, align 4
  store i32 0, i32* %1, align 4
  store i32 1, i32* %3, align 4
  %5 = call i32 (i8*, ...) @__isoc99_scanf(i8* getelementptr inbounds ([3 x i8], [3 x i8]* @.str, i64 0, i64 0), i8* %2)
  br label %6

6:                                                ; preds = %31, %0
  %7 = load i8, i8* %2, align 1
  %8 = sext i8 %7 to i32
  %9 = icmp ne i32 %8, 10
  br i1 %9, label %10, label %33

10:                                               ; preds = %6
  %11 = load i8, i8* %2, align 1
  %12 = sext i8 %11 to i32
  %13 = icmp eq i32 %12, 32
  br i1 %13, label %14, label %17

14:                                               ; preds = %10
  %15 = load i32, i32* %3, align 4
  %16 = icmp ne i32 %15, 0
  br i1 %16, label %21, label %17

17:                                               ; preds = %14, %10
  %18 = load i8, i8* %2, align 1
  %19 = sext i8 %18 to i32
  %20 = icmp ne i32 %19, 32
  br i1 %20, label %21, label %25

21:                                               ; preds = %17, %14
  %22 = load i8, i8* %2, align 1
  %23 = sext i8 %22 to i32
  %24 = call i32 (i8*, ...) @printf(i8* getelementptr inbounds ([3 x i8], [3 x i8]* @.str, i64 0, i64 0), i32 %23)
  br label %25

25:                                               ; preds = %21, %17
  %26 = load i8, i8* %2, align 1
  %27 = sext i8 %26 to i32
  %28 = icmp eq i32 %27, 32
  br i1 %28, label %29, label %30

29:                                               ; preds = %25
  store i32 0, i32* %3, align 4
  br label %31

30:                                               ; preds = %25
  store i32 1, i32* %3, align 4
  br label %31

31:                                               ; preds = %30, %29
  %32 = call i32 (i8*, ...) @__isoc99_scanf(i8* getelementptr inbounds ([3 x i8], [3 x i8]* @.str, i64 0, i64 0), i8* %2)
  br label %6

33:                                               ; preds = %6
  %34 = load i32, i32* %1, align 4
  ret i32 %34
}

declare dso_local i32 @__isoc99_scanf(i8*, ...) #1

declare dso_local i32 @printf(i8*, ...) #1


!llvm.module.flags = !{!0}
!llvm.ident = !{!1}

!0 = !{i32 1, !"wchar_size", i32 4}
!1 = !{!"clang version 10.0.0-4ubuntu1 "}
