; ModuleID = 'source-C-CXX/61/222.c'
source_filename = "source-C-CXX/61/222.c"
target datalayout = "e-m:e-p270:32:32-p271:32:32-p272:64:64-i64:64-f80:128-n8:16:32:64-S128"
target triple = "x86_64-pc-linux-gnu"

@.str = private unnamed_addr constant [3 x i8] c"%c\00", align 1

; Function Attrs: nofree nounwind sspstrong uwtable
define dso_local i32 @main() local_unnamed_addr #0 {
  %1 = alloca i8, align 1
  call void @llvm.lifetime.start.p0i8(i64 1, i8* nonnull %1) #4
  %2 = call i32 (i8*, ...) @__isoc99_scanf(i8* getelementptr inbounds ([3 x i8], [3 x i8]* @.str, i64 0, i64 0), i8* nonnull %1)
  %3 = load i8, i8* %1, align 1, !tbaa !5
  %4 = icmp eq i8 %3, 10
  br i1 %4, label %22, label %5

5:                                                ; preds = %0, %15
  %6 = phi i8 [ %20, %15 ], [ %3, %0 ]
  %7 = phi i32 [ %18, %15 ], [ 1, %0 ]
  %8 = icmp eq i8 %6, 32
  %9 = icmp eq i32 %7, 0
  %10 = and i1 %9, %8
  br i1 %10, label %15, label %11

11:                                               ; preds = %5
  %12 = sext i8 %6 to i32
  %13 = call i32 @putchar(i32 %12)
  %14 = load i8, i8* %1, align 1, !tbaa !5
  br label %15

15:                                               ; preds = %5, %11
  %16 = phi i8 [ 32, %5 ], [ %14, %11 ]
  %17 = icmp ne i8 %16, 32
  %18 = zext i1 %17 to i32
  %19 = call i32 (i8*, ...) @__isoc99_scanf(i8* getelementptr inbounds ([3 x i8], [3 x i8]* @.str, i64 0, i64 0), i8* nonnull %1)
  %20 = load i8, i8* %1, align 1, !tbaa !5
  %21 = icmp eq i8 %20, 10
  br i1 %21, label %22, label %5, !llvm.loop !8

22:                                               ; preds = %15, %0
  call void @llvm.lifetime.end.p0i8(i64 1, i8* nonnull %1) #4
  ret i32 0
}

; Function Attrs: argmemonly mustprogress nofree nosync nounwind willreturn
declare void @llvm.lifetime.start.p0i8(i64 immarg, i8* nocapture) #1

; Function Attrs: nofree nounwind
declare noundef i32 @__isoc99_scanf(i8* nocapture noundef readonly, ...) local_unnamed_addr #2

; Function Attrs: argmemonly mustprogress nofree nosync nounwind willreturn
declare void @llvm.lifetime.end.p0i8(i64 immarg, i8* nocapture) #1

; Function Attrs: nofree nounwind
declare noundef i32 @putchar(i32 noundef) local_unnamed_addr #3


!llvm.module.flags = !{!0, !1, !2, !3}
!llvm.ident = !{!4}

!0 = !{i32 1, !"wchar_size", i32 4}
!1 = !{i32 7, !"PIC Level", i32 2}
!2 = !{i32 7, !"PIE Level", i32 2}
!3 = !{i32 7, !"uwtable", i32 1}
!4 = !{!"clang version 13.0.0"}
!5 = !{!6, !6, i64 0}
!6 = !{!"omnipotent char", !7, i64 0}
!7 = !{!"Simple C/C++ TBAA"}
!8 = distinct !{!8, !9}
!9 = !{!"llvm.loop.mustprogress"}
